; Function Attrs: nounwind uwtable
define internal i32 @proxy_contains(ptr noundef readonly captures(none) %0, ptr noundef %1) #0 {
  %3 = getelementptr i8, ptr %0, i64 16
  %.val = load ptr, ptr %3, align 8, !tbaa !37
  %4 = icmp eq ptr %.val, @_Py_NoneStruct
  br i1 %4, label %proxy_check_ref.exit, label %5

5:                                                ; preds = %2
  %.val.i.i = load i32, ptr %.val, align 8, !tbaa !42
  %.not.i.i = icmp eq i32 %.val.i.i, 0
  br i1 %.not.i.i, label %proxy_check_ref.exit, label %6

6:                                                ; preds = %5
  %7 = icmp slt i32 %.val.i.i, 0
  br i1 %7, label %_PyWeakref_GET_REF.exit, label %8

8:                                                ; preds = %6
  %9 = add nuw i32 %.val.i.i, 1
  store i32 %9, ptr %.val, align 8, !tbaa !42
  br label %_PyWeakref_GET_REF.exit

proxy_check_ref.exit:                             ; preds = %5, %2
  %10 = load ptr, ptr @PyExc_ReferenceError, align 8, !tbaa !45
  tail call void @PyErr_SetString(ptr noundef %10, ptr noundef nonnull @.str.21) #6
  br label %Py_DECREF.exit

_PyWeakref_GET_REF.exit:                          ; preds = %8, %6
  %11 = tail call i32 @PySequence_Contains(ptr noundef nonnull %.val, ptr noundef %1) #6
  %12 = load i32, ptr %.val, align 8, !tbaa !42
  %.not.i = icmp sgt i32 %12, -1
  br i1 %.not.i, label %13, label %Py_DECREF.exit

13:                                               ; preds = %_PyWeakref_GET_REF.exit
  %14 = add nsw i32 %12, -1
  store i32 %14, ptr %.val, align 8, !tbaa !42
  %15 = icmp eq i32 %14, 0
  br i1 %15, label %16, label %Py_DECREF.exit

16:                                               ; preds = %13
  tail call void @_Py_Dealloc(ptr noundef nonnull %.val) #6
  br label %Py_DECREF.exit

Py_DECREF.exit:                                   ; preds = %16, %13, %_PyWeakref_GET_REF.exit, %proxy_check_ref.exit
  %.0 = phi i32 [ -1, %proxy_check_ref.exit ], [ %11, %_PyWeakref_GET_REF.exit ], [ %11, %13 ], [ %11, %16 ]
  ret i32 %.0
}